(dp0
S'twitter_list'
p1
(lp2
S'twitter.com/mathewi'
p3
aS'twitter.com/johnwoodrtr'
p4
aS'twitter.com/davemcclure'
p5
aS'twitter.com/fmanjoo'
p6
aS'twitter.com/justinwolfers'
p7
aS'twitter.com/jamesfallows'
p8
aS'twitter.com/natashakhanhk'
p9
aS'twitter.com/granick'
p10
aS'twitter.com/mattzeitlin'
p11
aS'twitter.com/jbenton'
p12
aS'twitter.com/agidari'
p13
aS'twitter.com/daiwaka'
p14
aS'twitter.com/jyarow'
p15
aS'twitter.com/sacca'
p16
aS'twitter.com/scottkirsner'
p17
aS'twitter.com/benpopper'
p18
aS'twitter.com/dannysullivan'
p19
aS'twitter.com/waltmossberg'
p20
aS'twitter.com/jordan_tara'
p21
aS'twitter.com/lessien'
p22
aS'twitter.com/attackerman'
p23
aS'twitter.com/piercedavid'
p24
aS'twitter.com/jonyivegoogling'
p25
aS'twitter.com/derekwillis'
p26
aS'twitter.com/thenextweb'
p27
aS'twitter.com/rsarver'
p28
aS'twitter.com/philiped'
p29
aS'twitter.com/rozzie'
p30
aS'twitter.com/jeff_jordan'
p31
aS'twitter.com/cookie'
p32
aS'twitter.com/mollyfication'
p33
aS'twitter.com/sriramk'
p34
aS'twitter.com/raquelevita'
p35
aS'twitter.com/sarahjeong'
p36
aS'twitter.com/ethankurz'
p37
aS'twitter.com/kept_simple'
p38
aS'twitter.com/dangillmor'
p39
aS'twitter.com/jamiestelter'
p40
aS'twitter.com/venturebeat'
p41
aS'twitter.com/mj291278'
p42
aS'twitter.com/codinghorror'
p43
aS'twitter.com/epro'
p44
aS'twitter.com/pmarca'
p45
aS'twitter.com/ericjackson'
p46
aS'twitter.com/chelseabot'
p47
aS'twitter.com/csoghoian'
p48
aS'twitter.com/mikeisaac'
p49
aS'twitter.com/pewinternet'
p50
aS'twitter.com/thirdweil'
p51
aS'twitter.com/usabilitycounts'
p52
aS'twitter.com/jessmisener'
p53
aS'twitter.com/jfruh'
p54
aS'twitter.com/stephpalmeri'
p55
aS'twitter.com/froomkin'
p56
aS'twitter.com/reckless'
p57
aS'twitter.com/settern'
p58
aS'twitter.com/kevinroose'
p59
aS'twitter.com/azmatzahra'
p60
aS'twitter.com/narenbalaji'
p61
aS'twitter.com/semil'
p62
aS'twitter.com/jeffweiner'
p63
aS'twitter.com/forbes'
p64
aS'twitter.com/harrymccracken'
p65
aS'twitter.com/mat'
p66
aS'twitter.com/collision'
p67
aS'twitter.com/backlon'
p68
aS'twitter.com/tomwarren'
p69
aS'twitter.com/thekenyeung'
p70
aS'twitter.com/buzzfeedben'
p71
aS'twitter.com/peretti'
p72
aS'twitter.com/shiraovide'
p73
aS'twitter.com/asymco'
p74
aS'twitter.com/carnage4life'
p75
aS'twitter.com/bewickwren'
p76
aS'twitter.com/coindesk'
p77
aS'twitter.com/pschiller'
p78
aS'twitter.com/tomgara'
p79
aS'twitter.com/arrington'
p80
aS'twitter.com/scottmaustin'
p81
aS'twitter.com/joshconstine'
p82
aS'twitter.com/howardlindzon'
p83
aS'twitter.com/marshallk'
p84
aS'twitter.com/stevesi'
p85
aS'twitter.com/andrewrsorkin'
p86
aS'twitter.com/srikardr'
p87
aS'twitter.com/ampressman'
p88
aS'twitter.com/nilofer'
p89
aS'twitter.com/brekelj'
p90
aS'twitter.com/sammywalrusiv'
p91
aS'twitter.com/ajs'
p92
aS'twitter.com/caseynewton'
p93
aS'twitter.com/benedictevans'
p94
aS'twitter.com/liliputingnews'
p95
aS'twitter.com/joannastern'
p96
aS'twitter.com/mattyglesias'
p97
aS'twitter.com/edwardnh'
p98
aS'twitter.com/rogerlmartin'
p99
aS'twitter.com/gis_ufm'
p100
aS'twitter.com/fintelkai'
p101
aS'twitter.com/markgurman'
p102
aS'twitter.com/ldignan'
p103
aS'twitter.com/theory'
p104
aS'twitter.com/digiphile'
p105
aS'twitter.com/christianhern'
p106
aS'twitter.com/aweissman'
p107
aS'twitter.com/dmac1'
p108
aS'twitter.com/parislemon'
p109
aS'twitter.com/jeffjarvis'
p110
aS'twitter.com/sarahkendzior'
p111
aS'twitter.com/mdudas'
p112
aS'twitter.com/thestalwart'
p113
aS'twitter.com/bznotes'
p114
aS'twitter.com/mattlynley'
p115
aS'twitter.com/ow'
p116
aS'twitter.com/marcoarment'
p117
aS'twitter.com/kashhill'
p118
aS'twitter.com/rogerwcheng'
p119
aS'twitter.com/rzkeller'
p120
aS'twitter.com/binarybits'
p121
aS'twitter.com/jerols'
p122
aS'twitter.com/fmbutt'
p123
aS'twitter.com/jbrodkin'
p124
aS'twitter.com/nytimes'
p125
aS'twitter.com/readermeter'
p126
aS'twitter.com/harrisonweber'
p127
aS'twitter.com/bonniescha'
p128
aS'twitter.com/dsilverman'
p129
aS'twitter.com/kinectwindows'
p130
aS'twitter.com/felixsalmon'
p131
aS'twitter.com/julipuli'
p132
aS'twitter.com/iankar_'
p133
aS'twitter.com/benfoxrubin'
p134
aS'twitter.com/infoarbitrage'
p135
aS'twitter.com/pkafka'
p136
aS'twitter.com/longform'
p137
aS'twitter.com/taylor_soper'
p138
aS'twitter.com/ryan'
p139
aS'twitter.com/panzer'
p140
aS'twitter.com/mikiszikszai'
p141
aS'twitter.com/smwat'
p142
aS'twitter.com/nakashimae'
p143
aS'twitter.com/drunknbass'
p144
aS'twitter.com/levie'
p145
aS'twitter.com/fabric'
p146
aS'twitter.com/s0h4m'
p147
aS'twitter.com/richarddeitsch'
p148
aS'twitter.com/om'
p149
aS'twitter.com/jackofkent'
p150
aS'twitter.com/mattblaze'
p151
aS'twitter.com/aatilley'
p152
aS'twitter.com/tcarmody'
p153
aS'twitter.com/evleaks'
p154
aS'twitter.com/tched'
p155
aS'twitter.com/seldo'
p156
aS'twitter.com/mspoonauer'
p157
aS'twitter.com/29man'
p158
aS'twitter.com/vine'
p159
aS'twitter.com/walterisaacson'
p160
asS'rss_list'
p161
(lp162
(S'pando.com'
p163
S'http://pando.com/rss.xml'
p164
tp165
a(S'www.businessinsider.com.au'
p166
S'http://feeds.businessinsider.com.au/businessinsideraustralia'
p167
tp168
a(S'www.slashgear.com'
p169
S'http://www.slashgear.com/feed/'
p170
tp171
a(S'hungarytoday.hu'
p172
S'http://hungarytoday.hu/feed'
p173
tp174
a(S'www.cnn.com'
p175
S'http://rss.cnn.com/rss/cnn_latest.rss'
p176
tp177
a(S'feeds.feedburner.com'
p178
S'http://feeds.feedburner.com/rss.xml'
p179
tp180
a(S'www.thewrap.com'
p181
S'http://www.thewrap.com/feed/'
p182
tp183
a(S'venturebreak.com'
p184
S'http://venturebreak.com/feed/'
p185
tp186
a(S'blog.chron.com'
p187
S'http://blog.chron.com/rss'
p188
tp189
a(S'www.redmondpie.com'
p190
S'http://www.redmondpie.com/feed/'
p191
tp192
a(S'blog.gadgetzarena.com'
p193
S'http://blog.gadgetzarena.com/feed/'
p194
tp195
a(S'www.seroundtable.com'
p196
S'https://www.seroundtable.com/index.rdf'
p197
tp198
a(S'dealbook.nytimes.com'
p199
S'http://dealbook.nytimes.com/feed/'
p200
tp201
a(S'www.smh.com.au'
p202
S'http://feeds.smh.com.au/rssheadlines/top.xml'
p203
tp204
a(S'mobilesyrup.com'
p205
S'http://mobilesyrup.com/feed/'
p206
tp207
a(S'www.legalbusiness.co.uk'
p208
S'http://www.legalbusiness.co.uk/index.php?format=feed&type=rss'
p209
tp210
a(S'www.taxationinfonews.com'
p211
S'http://www.taxationinfonews.com/feed/'
p212
tp213
a(S'www.theawl.com'
p214
S'http://feeds2.feedburner.com/TheAwl'
p215
tp216
a(S'nymag.com'
p217
S'http://nymag.com/daily/fashion/excerpts.xml'
p218
tp219
a(S'www.cryptocoinsnews.com'
p220
S'http://www.cryptocoinsnews.com/feed/'
p221
tp222
a(S'technabob.com'
p223
S'http://technabob.com/blog/feed'
p224
tp225
a(S'www.padgadget.com'
p226
S'http://feeds.feedburner.com/padgadget/'
p227
tp228
a(S'mjtsai.com'
p229
S'http://mjtsai.com/blog/feed/'
p230
tp231
a(S'www.multichannel.com'
p232
S'http://www.multichannel.com/rss.xml%20'
p233
tp234
a(S'www.pastemagazine.com'
p235
S'http://www.pastemagazine.com/recent.xml'
p236
tp237
a(S'www.adexchanger.com'
p238
S'http://www.adexchanger.com/feed/'
p239
tp240
a(S'www.electronista.com'
p241
S'http://www.electronista.com/electronista.rss'
p242
tp243
a(S'infoworld.com'
p244
S'http://www.infoworld.com/index.rss'
p245
tp246
a(S'9to5mac.com'
p247
S'http://9to5mac.com/feed/'
p248
tp249
a(S'ostatic.com'
p250
S'http://feeds.feedburner.com/ostatic'
p251
tp252
a(S'fortune.com'
p253
S'http://fortune.com/rss.xml'
p254
tp255
a(S'www.networkworld.com'
p256
S'http://www.networkworld.com/index.rss'
p257
tp258
a(S'www.joystiq.com'
p259
S'http://www.joystiq.com//rss.xml'
p260
tp261
a(S'blog.snapchat.com'
p262
S'http://blog.snapchat.com/rss'
p263
tp264
a(S'www.ghacks.net'
p265
S'http://www.ghacks.net/feed/'
p266
tp267
a(S'www.inc.com'
p268
S'http://www.inc.com/rss.xml'
p269
tp270
a(S'www.computerworld.com'
p271
S'http://www.computerworld.com/index.rss'
p272
tp273
a(S'www.zdnet.com'
p274
S'http://www.zdnet.com/rss.xml'
p275
tp276
a(S'blogs.cisco.com'
p277
S'http://blogs.cisco.com/feed/'
p278
tp279
a(S'arstechnica.com'
p280
S'http://feeds.arstechnica.com/arstechnica/index/'
p281
tp282
a(S'news.techmeme.com'
p283
S'http://news.techmeme.com/index.xml'
p284
tp285
a(S'blogs.windows.com'
p286
S'http://blogs.windows.com/feed/'
p287
tp288
a(S'www.androidpolice.com'
p289
S'http://www.androidpolice.com/feed/'
p290
tp291
a(S'www.seobythesea.com'
p292
S'http://www.seobythesea.com/feed/'
p293
tp294
a(S'multichannel.com'
p295
S'http://multichannel.com/rss.xml%20'
p296
tp297
a(S'www.bgr.in'
p298
S'http://www.bgr.in/feed/'
p299
tp300
a(S'techcrunch.com'
p301
S'http://techcrunch.com/feed/'
p302
tp303
a(S'abovethelaw.com'
p304
S'http://feeds.feedburner.com/abovethelaw/'
p305
tp306
a(S'www.pewinternet.org'
p307
S'http://www.pewinternet.org/feed/'
p308
tp309
a(S'crackberry.com'
p310
S'http://crackberry.com/rss.xml'
p311
tp312
a(S'www.nytimes.com'
p313
S'http://www.nytimes.com/services/xml/rss/nyt/HomePage.xml'
p314
tp315
a(S'www.socaltech.com'
p316
S'http://www.socaltech.com/news/news.rss'
p317
tp318
a(S'blogs.skype.com'
p319
S'http://feeds.feedburner.com/ShareSkypeEn'
p320
tp321
a(S'appleinsider.com'
p322
S'http://appleinsider.com/appleinsider.rss'
p323
tp324
a(S'allfacebook.com'
p325
S'http://allfacebook.com/rss/'
p326
tp327
a(S'www.eweek.com'
p328
S'http://www.eweek.com/rss.xml'
p329
tp330
a(S'www.tested.com'
p331
S'http://www.tested.com/feeds/'
p332
tp333
a(S'www.ibtimes.com'
p334
S'http://www.ibtimes.com/rss.xml'
p335
tp336
a(S'money.cnn.com'
p337
S'http://rss.cnn.com/rss/money_topstories.rss'
p338
tp339
a(S'www.nymag.com'
p340
S'http://www.vulture.com/rss/latestnews/full.xml'
p341
tp342
a(S'jalopnik.com'
p343
S'http://feeds.gawker.com/jalopnik/full'
p344
tp345
a(S'gigaom.com'
p346
S'https://gigaom.com/feed/'
p347
tp348
a(S'www.windowsitpro.com'
p349
S'http://windowsitpro.com/rss.xml'
p350
tp351
a(S'www.wired.com'
p352
S'http://www.wired.com/feed/'
p353
tp354
a(S'www.powerpage.org'
p355
S'http://www.powerpage.org/feed/'
p356
tp357
a(S'upstart.bizjournals.com'
p358
S'http://assets.upstart.bizjournals.com/rss/feed/all'
p359
tp360
a(S'www.dailytech.com'
p361
S'http://www.dailytech.com/rss.aspx'
p362
tp363
a(S'applespotlight.com'
p364
S'https://applespotlight.com/feed/'
p365
tp366
a(S'blog.foreignpolicy.com'
p367
S'http://blog.foreignpolicy.com/rss.xml'
p368
tp369
a(S'www.variety.com'
p370
S'http://variety.com/feed/'
p371
tp372
a(S'www.tuaw.com'
p373
S'http://www.tuaw.com/rss.xml'
p374
tp375
a(S'www.fiercebiotech.com'
p376
S'http://www.fiercebiotech.com/rss.xml'
p377
tp378
a(S'www.pehub.com'
p379
S'https://www.pehub.com/comments/feed/'
p380
tp381
a(S'www.winsupersite.com'
p382
S'http://winsupersite.com/rss.xml'
p383
tp384
a(S'www.macrumors.com'
p385
S'http://feeds.macrumors.com/MacRumors-All'
p386
tp387
a(S'boingboing.net'
p388
S'http://boingboing.net/rss'
p389
tp390
a(S'www.stonetemple.com'
p391
S'https://www.stonetemple.com/feed/'
p392
tp393
a(S'kotaku.com'
p394
S'http://feeds.gawker.com/kotaku/full'
p395
tp396
a(S'www.broadbandtvnews.com'
p397
S'http://www.broadbandtvnews.com/feed/'
p398
tp399
a(S'blog.sfgate.com'
p400
S'http://blog.sfgate.com/rss/'
p401
tp402
a(S'news.spotify.com'
p403
S'http://news.spotify.com/atom.xml'
p404
tp405
a(S'windowsitpro.com'
p406
S'http://windowsitpro.com/rss.xml'
p407
tp408
a(S'www.marco.org'
p409
S'http://www.marco.org/rss'
p410
tp411
a(S'www.wordstream.com'
p412
S'http://www.wordstream.com/rss.xml'
p413
tp414
a(S'www.scmagazineuk.com'
p415
S'http://www.scmagazineuk.com/pages/rss.aspx?sectionid=313'
p416
tp417
a(S'www.fiercemobileit.com'
p418
S'http://www.fiercemobileit.com/rss.xml'
p419
tp420
a(S'hdguru.com'
p421
S'http://hdguru.com/feed/'
p422
tp423
a(S'www.theinformation.com'
p424
S'http://www.theinformation.com/feed'
p425
tp426
a(S'searchengineland.com'
p427
S'http://feeds.searchengineland.com/searchcap'
p428
tp429
a(S'www.theatlantic.com'
p430
S'http://feeds.feedburner.com/TheAtlantic'
p431
tp432
a(S'www.strictlyvc.com'
p433
S'http://www.strictlyvc.com/feed/'
p434
tp435
a(S'www.fastcodesign.com'
p436
S'http://www.fastcodesign.com/rss.xml'
p437
tp438
a(S'rainnews.com'
p439
S'http://rainnews.com/feed/'
p440
tp441
a(S'fashionista.com'
p442
S'http://fashionista.com/index.xml'
p443
tp444
a(S'beaugil.es'
p445
S'https://beaugil.es/feed/'
p446
tp447
a(S'support.apple.com'
p448
S'http://support.apple.com/rss/'
p449
tp450
a(S'www.irishtimes.com'
p451
S'http://www.irishtimes.com/rss/video-wall-1.1683580?localLinksEnabled=false'
p452
tp453
a(S'www.macstories.net'
p454
S'http://www.macstories.net/feed/'
p455
tp456
a(S'ecpmblog.wordpress.com'
p457
S'http://ecpmblog.wordpress.com/feed/'
p458
tp459
a(S'sixcolors.com'
p460
S'http://feedpress.me/sixcolors?type=xml'
p461
tp462
a(S'betanews.com'
p463
S'http://betanews.com/feed/'
p464
tp465
a(S'bits.blogs.nytimes.com'
p466
S'http://bits.blogs.nytimes.com/feed/'
p467
tp468
a(S'chicagobusiness.com'
p469
S'http://chicagobusiness.com/section/news?template=rss'
p470
tp471
a(S'www.citeworld.com'
p472
S'http://www.citeworld.com/index.rss'
p473
tp474
a(S'www.itproportal.com'
p475
S'http://feeds.itproportal.com/itproportal/rss'
p476
tp477
a(S'blog.flickr.net'
p478
S'http://blog.flickr.net/rss.xml'
p479
tp480
a(S'www.connectedly.com'
p481
S'http://www.connectedly.com/rss.xml'
p482
tp483
a(S'blog.cloudflare.com'
p484
S'http://blog.cloudflare.com/rss/'
p485
tp486
a(S'www.bit-tech.net'
p487
S'http://www.bit-tech.net/xml/all.rss'
p488
tp489
a(S'www.ubergizmo.com'
p490
S'http://cdn2.ubergizmo.com/index.xml'
p491
tp492
a(S'www.thehill.com'
p493
S'http://www.thehill.com/rss.xml'
p494
tp495
a(S'www.marketingpilgrim.com'
p496
S'http://www.marketingpilgrim.com/feed'
p497
tp498
a(S'pocketnow.com'
p499
S'http://pocketnow.com/feed'
p500
tp501
a(S'www.extremetech.com'
p502
S'http://www.extremetech.com/feed'
p503
tp504
a(S'blog.cryptographyengineering.com'
p505
S'http://blog.cryptographyengineering.com/feeds/posts/default'
p506
tp507
a(S'www.androidcentral.com'
p508
S'http://www.androidcentral.com/feed'
p509
tp510
a(S'www.examiner.com'
p511
S'http://www.examiner.com/rss.xml'
p512
tp513
a(S'www.digitaltrends.com'
p514
S'http://www.digitaltrends.com/feed/'
p515
tp516
a(S'www.buzzfeed.com'
p517
S'http://www.buzzfeed.com/index.xml'
p518
tp519
a(S'www.scmagazine.com'
p520
S'http://feeds.feedburner.com/scmagazinehome'
p521
tp522
a(S'socialtimes.com'
p523
S'http://socialtimes.com/rss/'
p524
tp525
a(S'www.techweekeurope.co.uk'
p526
S'http://www.techweekeurope.co.uk/feed'
p527
tp528
a(S'hexus.net'
p529
S'http://hexus.net/rss/'
p530
tp531
a(S'time.com'
p532
S'http://time.com/rss.xml'
p533
tp534
a(S'www.globalnerdy.com'
p535
S'http://feeds.feedburner.com/globalnerdy'
p536
tp537
a(S'www.memeorandum.com'
p538
S'http://www.memeorandum.com/feed.xml'
p539
tp540
a(S'www.time.com'
p541
S'http://www.time.com/rss.xml'
p542
tp543
a(S'www.infoworld.com'
p544
S'http://www.infoworld.com/index.rss'
p545
tp546
a(S'blogs.unity3d.com'
p547
S'http://blogs.unity3d.com/feed/'
p548
tp549
a(S'techpinions.com'
p550
S'http://techpinions.com/feed'
p551
tp552
a(S'readwrite.com'
p553
S'http://readwrite.com/rss.xml'
p554
tp555
a(S'www.silicontap.com'
p556
S'http://www.silicontap.com/news/news.rss'
p557
tp558
a(S'www.pocket-lint.com'
p559
S'http://cdn.pocket-lint.com/rss/all.xml'
p560
tp561
a(S'www.imore.com'
p562
S'http://www.imore.com/feed'
p563
tp564
a(S'www.itworld.com'
p565
S'http://www.itworld.com/index.rss'
p566
tp567
a(S'dailycaller.com'
p568
S'http://dailycaller.com/feed/'
p569
tp570
a(S'www.cloudpro.co.uk'
p571
S'http://www.cloudpro.co.uk/rss.xml'
p572
tp573
a(S'www.geek.com'
p574
S'http://www.geek.com/feed/'
p575
tp576
a(S'www.wpcentral.com'
p577
S'http://www.wpcentral.com/rss'
p578
tp579
a(S'bgr.com'
p580
S'http://bgr.com/feed/'
p581
tp582
a(S'www.washingtonpost.com'
p583
S'http://www.washingtonpost.com/rss/homepage'
p584
tp585
a(S'www.technobuffalo.com'
p586
S'http://www.technobuffalo.com/feed/'
p587
tp588
a(S'www.eurogamer.net'
p589
S'http://www.eurogamer.net/?format=rss'
p590
tp591
a(S'www.sfexaminer.com'
p592
S'http://www.sfexaminer.com/sanfrancisco/Rss.xml'
p593
tp594
a(S'www.betanews.com'
p595
S'http://betanews.com/feed/'
p596
tp597
a(S'www.thewhir.com'
p598
S'http://www.thewhir.com/feed'
p599
tp600
a(S'smallbusiness.com'
p601
S'http://smallbusiness.com/feed/'
p602
tp603
a(S'news.microsoft.com'
p604
S'http://news.microsoft.com/feed/'
p605
tp606
a(S'www.maclife.com'
p607
S'http://www.maclife.com/rss.xml'
p608
tp609
a(S'au.pcmag.com'
p610
S'http://au.pcmag.com/feed.xml'
p611
tp612
a(S'www.idownloadblog.com'
p613
S'http://www.idownloadblog.com/feed/'
p614
tp615
a(S'www.dailydot.com'
p616
S'http://www.dailydot.com/feed/summary/latest/'
p617
tp618
a(S'www.news.com.au'
p619
S'http://feeds.news.com.au/public/rss/2.0/news_top_stories_48.xml'
p620
tp621
a(S'online.wsj.com'
p622
S'http://feeds.wsjonline.com/wsj/xml/rss/3_7011.xml'
p623
tp624
a(S'www.thewearablestuff.com'
p625
S'http://www.thewearablestuff.com/feed/'
p626
tp627
a(S'venturebeat.com'
p628
S'http://feeds.venturebeat.com/VentureBeat'
p629
tp630
a(S'justsecurity.org'
p631
S'http://justsecurity.org/feed/'
p632
tp633
a(S'www.winbeta.org'
p634
S'http://www.winbeta.org/rss.xml'
p635
tp636
a(S'phandroid.com'
p637
S'http://phandroid.com/feed/'
p638
tp639
a(S'blog.laptopmag.com'
p640
S'http://feeds.feedburner.com/LaptopMagazineNews'
p641
tp642
a(S'www.seattlesportsnut.com'
p643
S'http://www.seattlesportsnut.com/rss.xml'
p644
tp645
a(S'blogs.wsj.com'
p646
S'http://blogs.wsj.com/feed/'
p647
tp648
a(S'gmailblog.blogspot.com'
p649
S'http://gmailblog.blogspot.com/feeds/posts/default'
p650
tp651
a(S'winsupersite.com'
p652
S'http://winsupersite.com/rss.xml'
p653
tp654
a(S'www.windowscentral.com'
p655
S'http://www.windowscentral.com/rss'
p656
tp657
a(S'googleonlinesecurity.blogspot.co.uk'
p658
S'http://googleonlinesecurity.blogspot.com/feeds/posts/default'
p659
tp660
a(S'www.webpronews.com'
p661
S'http://www.webpronews.com/feed'
p662
tp663
a(S'www.techspot.com'
p664
S'http://www.techspot.com/reviews.xml'
p665
tp666
a(S'www.theguardian.com'
p667
S'http://feeds.theguardian.com/theguardian/us/rss'
p668
tp669
a(S'www.macnn.com'
p670
S'http://www.macnn.com/macnn.rss'
p671
tp672
a(S'www.fortune.com'
p673
S'http://www.fortune.com/rss.xml'
p674
tp675
a(S'thenewstack.io'
p676
S'http://thenewstack.io/feed/'
p677
tp678
a(S'www.techinasia.com'
p679
S'http://feeds.feedburner.com/techinasia'
p680
tp681
a(S'www.intomobile.com'
p682
S'http://feeds.intomobile.com/IntoMobile'
p683
tp684
a(S'www.independent.co.uk'
p685
S'http://www.independent.co.uk/sport/rss'
p686
tp687
a(S'www.beet.tv'
p688
S'http://www.beet.tv/rss.xml'
p689
tp690
a(S'www.rev2.org'
p691
S'http://www.rev2.org/feed/'
p692
tp693
a(S'www.androidguys.com'
p694
S'http://www.androidguys.com/feed/'
p695
tp696
a(S'mediagazer.com'
p697
S'http://mediagazer.com/feed.xml'
p698
tp699
a(S'sanfrancisco.cbslocal.com'
p700
S'http://sanfrancisco.cbslocal.com/feed/'
p701
tp702
a(S'9to5google.com'
p703
S'http://9to5google.com/feed/'
p704
tp705
a(S'stratechery.com'
p706
S'http://stratechery.com/feed/'
p707
tp708
a(S'www.edsurge.com'
p709
S'https://www.edsurge.com/articles_rss'
p710
tp711
a(S'www.sixcolors.com'
p712
S'http://feedpress.me/sixcolors?type=xml'
p713
tp714
a(S'blog.erratasec.com'
p715
S'http://blog.erratasec.com/feeds/posts/default'
p716
tp717
a(S'www.ftc.gov'
p718
S'http://www.ftc.gov/rss.xml'
p719
tp720
a(S'www.macobserver.com'
p721
S'http://www.macobserver.com/tmo/rss/everything'
p722
tp723
a(S'www.droid-life.com'
p724
S'http://www.droid-life.com/feed/'
p725
tp726
a(S'abcnews.go.com'
p727
S'http://feeds.abcnews.com/abcnews/topstories'
p728
tp729
a(S'www.datacenterknowledge.com'
p730
S'http://www.datacenterknowledge.com/feed/'
p731
tp732
a(S'www.poynter.org'
p733
S'http://www.poynter.org/home/feed/'
p734
tp735
a(S'www.theequitykicker.com'
p736
S'http://www.theequitykicker.com/feed/'
p737
tp738
a(S'www.chicagotribune.com'
p739
S'http://www.chicagotribune.com/rss2.0.xml'
p740
tp741
a(S'www.fiercecio.com'
p742
S'http://www.fiercecio.com/rss.xml'
p743
tp744
a(S'en.greatfire.org'
p745
S'http://en.greatfire.org/news/blog/rss'
p746
tp747
a(S'www.polygon.com'
p748
S'http://www.polygon.com/rss/index.xml'
p749
tp750
a(S'siliconangle.com'
p751
S'http://siliconangle.com/feed/'
p752
tp753
a(S'www.cultofmac.com'
p754
S'http://cultofmac.com.feedsportal.com/c/33797/f/606249/index.rss'
p755
tp756
a(S'mashable.com'
p757
S'http://feeds.mashable.com/Mashable'
p758
tp759
a(S'qz.com'
p760
S'http://qz.com/rss.xml'
p761
tp762
a(S'the-digital-reader.com'
p763
S'http://the-digital-reader.com/feed/'
p764
tp765
a(S'www.thedomains.com'
p766
S'http://feeds.feedburner.com/thedomains'
p767
tp768
a(S'www.apple.com'
p769
S'http://images.apple.com/main/rss/hotnews/hotnews.rss'
p770
tp771
a(S'officialblog.yelp.com'
p772
S'http://officialblog.yelp.com/rss.xml'
p773
tp774
a(S'www.hollywoodreporter.com'
p775
S'http://www.hollywoodreporter.com/rss.xml'
p776
tp777
a(S'www.wesmirch.com'
p778
S'http://www.wesmirch.com/feed.xml'
p779
tp780
a(S'www.latimes.com'
p781
S'http://www.latimes.com/rss2.0.xml'
p782
tp783
a(S'blog.lyft.com'
p784
S'http://blog.lyft.com/posts?format=RSS'
p785
tp786
a(S'www.amazonstrategies.com'
p787
S'http://www.amazonstrategies.com/atom.xml'
p788
tp789
a(S'www.fiercewireless.com'
p790
S'http://www.fiercewireless.com/rss.xml'
p791
tp792
a(S'www.asymco.com'
p793
S'http://www.asymco.com/feed/'
p794
tp795
a(S'www.tmonews.com'
p796
S'http://www.tmonews.com/feed/'
p797
tp798
a(S'lifehacker.com'
p799
S'http://feeds.gawker.com/lifehacker/full'
p800
tp801
a(S'billboard.com'
p802
S'http://billboard.com/rss.xml'
p803
tp804
a(S'www.techdirt.com'
p805
S'http://www.techdirt.com/techdirt_rss.xml'
p806
tp807
a(S'consumerist.com'
p808
S'http://consumerist.com/feed/'
p809
tp810
a(S'www.eater.com'
p811
S'http://www.eater.com/rss/index.xml'
p812
tp813
a(S'www.streamingmedia.com'
p814
S'http://feeds.infotoday.com/StreamingMediaMagazine-AllArticles'
p815
tp816
a(S'www.siliconbeat.com'
p817
S'http://www.siliconbeat.com/feed/'
p818
tp819
a(S'www.businessinsider.com'
p820
S'http://feeds2.feedburner.com/businessinsider'
p821
tp822
a(S'asmarterplanet.com'
p823
S'http://asmarterplanet.com/feed'
p824
tp825
a(S'www.theverge.com'
p826
S'http://www.theverge.com/rss/index.xml'
p827
tp828
a(S'appadvice.com'
p829
S'http://feeds2.feedburner.com/AppAdvice'
p830
tp831
a(S'blog.wolfram.com'
p832
S'http://blog.wolfram.com/feed/'
p833
tp834
a(S'techpp.com'
p835
S'http://techpp.com/feed/'
p836
tp837
a(S'seekingalpha.com'
p838
S'http://seekingalpha.com/feed.xml'
p839
tp840
a(S'www.mediabistro.com'
p841
S'http://www.mediabistro.com/news/rss/'
p842
tp843
a(S'www.patentlyapple.com'
p844
S'http://www.patentlyapple.com/patently-apple/rss.xml'
p845
tp846
a(S'blog.seattlepi.com'
p847
S'http://blog.seattlepi.com/rss'
p848
tp849
a(S'www.japantoday.com'
p850
S'http://www.japantoday.com/feed'
p851
tp852
a(S'vator.tv'
p853
S'http://feeds.vator.tv/vatortv/news'
p854
tp855
a(S'techhive.com'
p856
S'http://www.techhive.com/index.rss'
p857
tp858
a(S'daringfireball.net'
p859
S'http://daringfireball.net/feeds/main'
p860
tp861
a(S'thenextweb.com'
p862
S'http://feeds2.feedburner.com/thenextweb'
p863
tp864
a(S'blogs.technet.com'
p865
S'http://blogs.technet.com/rss.aspx'
p866
tp867
a(S'betaboston.com'
p868
S'http://betaboston.com/feed/'
p869
tp870
a(S'www.rudebaguette.com'
p871
S'http://www.rudebaguette.com/feed/'
p872
tp873
a(S'officialandroid.blogspot.com'
p874
S'http://officialandroid.blogspot.com/feeds/posts/default'
p875
tp876
a(S'blog.macminicolo.net'
p877
S'http://blog.macminicolo.net/rss'
p878
tp879
a(S'www.whitehouse.gov'
p880
S'http://www.whitehouse.gov/feed/blog'
p881
tp882
a(S'techreport.com'
p883
S'http://techreport.com/news.rss'
p884
tp885
a(S'www.adweek.com'
p886
S'http://www.adweek.com/rss.xml'
p887
tp888
a(S'www.gizmobic.com'
p889
S'http://www.gizmobic.com/feed/'
p890
tp891
a(S'blog.twitter.com'
p892
S'https://blog.twitter.com/api/blog.rss?name=company'
p893
tp894
a(S'blog.biakelsey.com'
p895
S'http://blog.biakelsey.com/index.php/feed/'
p896
tp897
a(S'www.natlawreview.com'
p898
S'http://www.natlawreview.com/feed'
p899
tp900
a(S'www.phonearena.com'
p901
S'http://www.phonearena.com/feed/news'
p902
tp903
a(S'www.billboard.com'
p904
S'http://www.billboard.com/rss.xml'
p905
tp906
a(S'techmeme.com'
p907
S'http://www.techmeme.com/feed.xml'
p908
tp909
a(S'laughingsquid.com'
p910
S'http://laughingsquid.com/comments/feed/'
p911
tp912
a(S'krebsonsecurity.com'
p913
S'http://krebsonsecurity.com/feed/'
p914
tp915
a(S'blog.gsmarena.com'
p916
S'http://gsmarena.com/rss-news-reviews.php3'
p917
tp918
a(S'www.allenpike.com'
p919
S'http://www.allenpike.com/feed/'
p920
tp921
a(S'www.videonuze.com'
p922
S'http://www.videonuze.com/atom/podcast'
p923
tp924
a(S'www.cato.org'
p925
S'http://www.cato-unbound.org/rss'
p926
tp927
a(S'www.businessweek.com'
p928
S'http://www.businessweek.com/feeds/homepage.rss'
p929
tp930
a(S'htcsource.com'
p931
S'http://htcsource.com/feed/'
p932
tp933
a(S'googlecloudplatform.blogspot.com'
p934
S'http://googlecloudplatform.blogspot.com/feeds/posts/default'
p935
tp936
a(S'gizmodo.com'
p937
S'http://feeds.gawker.com/gizmodo/full'
p938
tp939
a(S'www.coindesk.com'
p940
S'http://feeds.feedburner.com/CoinDesk'
p941
tp942
a(S'www.twice.com'
p943
S'http://www.twice.com/rss.xml'
p944
tp945
a(S'www.ft.com'
p946
S'http://www.ft.com/rss/home/uk'
p947
tp948
a(S'googlesystem.blogspot.com'
p949
S'http://feeds.feedburner.com/GoogleOperatingSystem'
p950
tp951
a(S'www.fbi.gov'
p952
S'http://www.fbi.gov/homepage/RSS'
p953
tp954
a(S'www.anandtech.com'
p955
S'http://www.anandtech.com/rss/'
p956
tp957
a(S'www.9to5mac.com'
p958
S'http://9to5mac.com/feed/'
p959
tp960
a(S'www.engadget.com'
p961
S'http://www.engadget.com/rss.xml'
p962
tp963
a(S'channeleye.co.uk'
p964
S'http://channeleye.co.uk/feed/'
p965
tp966
a(S'www.net-security.org'
p967
S'http://feeds2.feedburner.com/HelpNetSecurity'
p968
tp969
a(S'www.mediagazer.com'
p970
S'http://mediagazer.com/feed.xml'
p971
tp972
a(S'computerworld.com'
p973
S'http://www.computerworld.com/index.rss'
p974
tp975
a(S'www.tomsguide.com'
p976
S'http://www.tomsguide.com/feeds/rss2/all.xml'
p977
tp978
a(S'www.portfolio.hu'
p979
S'http://www.portfolio.hu/rss/cikkek/all.xml'
p980
tp981
a(S'mobihealthnews.com'
p982
S'http://mobihealthnews.com/feed/'
p983
tp984
a(S'feeds2.feedburner.com'
p985
S'http://feeds2.feedburner.com/rss.xml'
p986
tp987
a(S'www.telegraph.co.uk'
p988
S'http://www.telegraph.co.uk/rss'
p989
tp990
a(S'googleonlinesecurity.blogspot.com'
p991
S'http://googleonlinesecurity.blogspot.com/feeds/posts/default'
p992
tp993
a(S'www.huffingtonpost.com'
p994
S'http://www.huffingtonpost.com/wires/full_index.rdf'
p995
tp996
a(S'blog.redfin.com'
p997
S'http://blog.redfin.com/feed'
p998
tp999
a(S'www.iclarified.com'
p1000
S'http://www.iclarified.com/rss/rss.xml'
p1001
tp1002
a(S'www.tapscape.com'
p1003
S'http://www.tapscape.com/feed/'
p1004
tp1005
a(S'www.chinatopix.com'
p1006
S'http://www.chinatopix.com/rss/'
p1007
tp1008
a(S'www.govhealthit.com'
p1009
S'http://www.govhealthit.com/events/feed'
p1010
tp1011
a(S'www.theregister.co.uk'
p1012
S'http://www.theregister.co.uk/headlines.atom'
p1013
tp1014
a(S'www.neowin.net'
p1015
S'http://feeds.feedburner.com/neowin-main'
p1016
tp1017
a(S'www.broadcastingcable.com'
p1018
S'http://www.broadcastingcable.com/rss.xml'
p1019
tp1020
a(S'www.dslreports.com'
p1021
S'http://feeds.feedburner.com/dslreports'
p1022
tp1023
a(S'fcw.com'
p1024
S'http://fcw.com/rss-feeds/all.aspx'
p1025
tp1026
a(S'macdailynews.com'
p1027
S'http://macdailynews.com/feed/'
p1028
tp1029
a(S'phys.org'
p1030
S'http://phys.org/rss-feed/'
p1031
tp1032
a(S'www.cio.com'
p1033
S'http://www.cio.com/index.rss'
p1034
tp1035
a(S'www.dailymail.co.uk'
p1036
S'http://www.dailymail.co.uk/articles.rss'
p1037
tp1038
a(S'www.androidheadlines.com'
p1039
S'http://www.androidheadlines.com/feed'
p1040
tp1041
a(S'yahoo.tumblr.com'
p1042
S'http://yahoo.tumblr.com/rss'
p1043
tp1044
a(S'marketingland.com'
p1045
S'http://feeds.marketingland.com/mktingland'
p1046
tp1047
a(S'recode.net'
p1048
S'http://recode.net/feed/'
p1049
tp1050
a(S'www.mobileburn.com'
p1051
S'http://www.mobileburn.com/xml/rss2.jsp'
p1052
tp1053
a(S'www.craveonline.com'
p1054
S'http://www.craveonline.com/feed'
p1055
tp1056
a(S'valleywag.gawker.com'
p1057
S'http://feeds.gawker.com/valleywag/full'
p1058
tp1059
a(S'www.forbes.com'
p1060
S'http://www.forbes.com/real-time/feed2/'
p1061
tp1062
a(S'www.macworld.com'
p1063
S'http://www.macworld.com/index.rss'
p1064
tp1065
a(S'www.benzinga.com'
p1066
S'http://feeds.benzinga.com/benzinga'
p1067
tp1068
a(S'www.ilounge.com'
p1069
S'http://feeds.feedburner.com/ilounge'
p1070
tp1071
a(S'sploid.gizmodo.com'
p1072
S'http://sploid.gizmodo.com/rss'
p1073
tp1074
a(S'www.chicagobusiness.com'
p1075
S'http://www.chicagobusiness.com/section/news?template=rss'
p1076
tp1077
a(S'blog.pandora.com'
p1078
S'http://blog.pandora.com/feed/'
p1079
tp1080
a(S'blogs.microsoft.com'
p1081
S'http://blogs.microsoft.com/feed/'
p1082
tp1083
a(S'www.vox.com'
p1084
S'http://www.vox.com/rss/index.xml'
p1085
tp1086
a(S'www.greenbot.com'
p1087
S'http://www.greenbot.com/index.rss'
p1088
tp1089
a(S'thehill.com'
p1090
S'http://thehill.com/rss.xml'
p1091
tp1092
a(S'www.adotas.com'
p1093
S'http://www.adotas.com/feed/'
p1094
tp1095
a(S'press.spotify.com'
p1096
S'http://press.spotify.com/atom.xml'
p1097
tp1098
a(S'www.techhive.com'
p1099
S'http://www.techhive.com/index.rss'
p1100
tp1101
a(S'www.pcworld.com'
p1102
S'http://www.pcworld.com/index.rss'
p1103
tp1104
a(S'rt.com'
p1105
S'http://rt.com/rss/'
p1106
tp1107
a(S'www.fastcompany.com'
p1108
S'http://www.fastcompany.com/rss.xml'
p1109
tp1110
a(S'cornerplay.com'
p1111
S'http://cornerplay.com/feed/'
p1112
tp1113
a(S'a16z.com'
p1114
S'http://a16z.com/feed/'
p1115
tp1116
a(S'pbokelly.blogspot.com'
p1117
S'http://pbokelly.blogspot.com/feeds/posts/default'
p1118
tp1119
a(S'firstlook.org'
p1120
S'https://firstlook.org/home/feed/'
p1121
tp1122
a(S'www.applegazette.com'
p1123
S'http://feeds.feedburner.com/AppleGazette'
p1124
tp1125
a(S'www.androidpit.com'
p1126
S'http://www.androidpit.com/feed/main.xml'
p1127
tp1128
a(S'www.techmeme.com'
p1129
S'http://www.techmeme.com/feed.xml'
p1130
tp1131
a(S'blog.walkscore.com'
p1132
S'http://blog.walkscore.com/feed/'
p1133
tp1134
as.