(dp0
S'twitter_list'
p1
(lp2
S'twitter.com/mathewi'
p3
aS'twitter.com/johnwoodrtr'
p4
aS'twitter.com/davemcclure'
p5
aS'twitter.com/fmanjoo'
p6
aS'twitter.com/justinwolfers'
p7
aS'twitter.com/jamesfallows'
p8
aS'twitter.com/natashakhanhk'
p9
aS'twitter.com/granick'
p10
aS'twitter.com/mattzeitlin'
p11
aS'twitter.com/jbenton'
p12
aS'twitter.com/schoofsfeed'
p13
aS'twitter.com/delrey'
p14
aS'twitter.com/agidari'
p15
aS'twitter.com/daiwaka'
p16
aS'twitter.com/jyarow'
p17
aS'twitter.com/sacca'
p18
aS'twitter.com/scottkirsner'
p19
aS'twitter.com/benpopper'
p20
aS'twitter.com/dannysullivan'
p21
aS'twitter.com/waltmossberg'
p22
aS'twitter.com/jordan_tara'
p23
aS'twitter.com/lessien'
p24
aS'twitter.com/waxpancake'
p25
aS'twitter.com/attackerman'
p26
aS'twitter.com/parislemon'
p27
aS'twitter.com/donal888'
p28
aS'twitter.com/piercedavid'
p29
aS'twitter.com/jonyivegoogling'
p30
aS'twitter.com/derekwillis'
p31
aS'twitter.com/thenextweb'
p32
aS'twitter.com/rsarver'
p33
aS'twitter.com/philiped'
p34
aS'twitter.com/rozzie'
p35
aS'twitter.com/jeff_jordan'
p36
aS'twitter.com/cookie'
p37
aS'twitter.com/mollyfication'
p38
aS'twitter.com/sriramk'
p39
aS'twitter.com/coindesk'
p40
aS'twitter.com/sarahjeong'
p41
aS'twitter.com/qthrul'
p42
aS'twitter.com/ryanchittum'
p43
aS'twitter.com/msquinn'
p44
aS'twitter.com/jamiestelter'
p45
aS'twitter.com/venturebeat'
p46
aS'twitter.com/mj291278'
p47
aS'twitter.com/codinghorror'
p48
aS'twitter.com/epro'
p49
aS'twitter.com/bradplumer'
p50
aS'twitter.com/ethankurz'
p51
aS'twitter.com/ericjackson'
p52
aS'twitter.com/chelseabot'
p53
aS'twitter.com/csoghoian'
p54
aS'twitter.com/mikeisaac'
p55
aS'twitter.com/pewinternet'
p56
aS'twitter.com/thirdweil'
p57
aS'twitter.com/usabilitycounts'
p58
aS'twitter.com/dsilverman'
p59
aS'twitter.com/jessmisener'
p60
aS'twitter.com/jfruh'
p61
aS'twitter.com/hblodget'
p62
aS'twitter.com/stephpalmeri'
p63
aS'twitter.com/froomkin'
p64
aS'twitter.com/reckless'
p65
aS'twitter.com/settern'
p66
aS'twitter.com/kevinroose'
p67
aS'twitter.com/azmatzahra'
p68
aS'twitter.com/narenbalaji'
p69
aS'twitter.com/kept_simple'
p70
aS'twitter.com/fromedome'
p71
aS'twitter.com/semil'
p72
aS'twitter.com/dangillmor'
p73
aS'twitter.com/dmac1'
p74
aS'twitter.com/tomgara'
p75
aS'twitter.com/forbes'
p76
aS'twitter.com/harrymccracken'
p77
aS'twitter.com/mat'
p78
aS'twitter.com/collision'
p79
aS'twitter.com/backlon'
p80
aS'twitter.com/tomwarren'
p81
aS'twitter.com/johnnotjon'
p82
aS'twitter.com/thekenyeung'
p83
aS'twitter.com/buzzfeedben'
p84
aS'twitter.com/peretti'
p85
aS'twitter.com/shiraovide'
p86
aS'twitter.com/asymco'
p87
aS'twitter.com/carnage4life'
p88
aS'twitter.com/bewickwren'
p89
aS'twitter.com/zephoria'
p90
aS'twitter.com/pschiller'
p91
aS'twitter.com/vine'
p92
aS'twitter.com/bobmcmillan'
p93
aS'twitter.com/arrington'
p94
aS'twitter.com/scottmaustin'
p95
aS'twitter.com/joshconstine'
p96
aS'twitter.com/howardlindzon'
p97
aS'twitter.com/marshallk'
p98
aS'twitter.com/stevesi'
p99
aS'twitter.com/andrewrsorkin'
p100
aS'twitter.com/raquelevita'
p101
aS'twitter.com/ampressman'
p102
aS'twitter.com/nilofer'
p103
aS'twitter.com/brekelj'
p104
aS'twitter.com/sammywalrusiv'
p105
aS'twitter.com/ajs'
p106
aS'twitter.com/caseynewton'
p107
aS'twitter.com/benedictevans'
p108
aS'twitter.com/liliputingnews'
p109
aS'twitter.com/drbarnard'
p110
aS'twitter.com/joannastern'
p111
aS'twitter.com/mattyglesias'
p112
aS'twitter.com/edwardnh'
p113
aS'twitter.com/rogerlmartin'
p114
aS'twitter.com/startupljackson'
p115
aS'twitter.com/fintelkai'
p116
aS'twitter.com/markgurman'
p117
aS'twitter.com/ldignan'
p118
aS'twitter.com/theory'
p119
aS'twitter.com/digiphile'
p120
aS'twitter.com/christianhern'
p121
aS'twitter.com/aweissman'
p122
aS'twitter.com/gis_ufm'
p123
aS'twitter.com/tha_rami'
p124
aS'twitter.com/jeffweiner'
p125
aS'twitter.com/jeffjarvis'
p126
aS'twitter.com/sarahkendzior'
p127
aS'twitter.com/mdudas'
p128
aS'twitter.com/thestalwart'
p129
aS'twitter.com/jessicalessin'
p130
aS'twitter.com/om'
p131
aS'twitter.com/bznotes'
p132
aS'twitter.com/mattlynley'
p133
aS'twitter.com/ow'
p134
aS'twitter.com/marcoarment'
p135
aS'twitter.com/kashhill'
p136
aS'twitter.com/rogerwcheng'
p137
aS'twitter.com/rzkeller'
p138
aS'twitter.com/pmarca'
p139
aS'twitter.com/nickbilton'
p140
aS'twitter.com/binarybits'
p141
aS'twitter.com/jerols'
p142
aS'twitter.com/fmbutt'
p143
aS'twitter.com/jbrodkin'
p144
aS'twitter.com/nytimes'
p145
aS'twitter.com/readermeter'
p146
aS'twitter.com/harrisonweber'
p147
aS'twitter.com/srikardr'
p148
aS'twitter.com/bonniescha'
p149
aS'twitter.com/amir'
p150
aS'twitter.com/kinectwindows'
p151
aS'twitter.com/felixsalmon'
p152
aS'twitter.com/julipuli'
p153
aS'twitter.com/iankar_'
p154
aS'twitter.com/benfoxrubin'
p155
aS'twitter.com/infoarbitrage'
p156
aS'twitter.com/pkafka'
p157
aS'twitter.com/longform'
p158
aS'twitter.com/taylor_soper'
p159
aS'twitter.com/ryan'
p160
aS'twitter.com/panzer'
p161
aS'twitter.com/mikiszikszai'
p162
aS'twitter.com/smwat'
p163
aS'twitter.com/nakashimae'
p164
aS'twitter.com/drunknbass'
p165
aS'twitter.com/hamburger'
p166
aS'twitter.com/levie'
p167
aS'twitter.com/fabric'
p168
aS'twitter.com/s0h4m'
p169
aS'twitter.com/richarddeitsch'
p170
aS'twitter.com/erickschonfeld'
p171
aS'twitter.com/jackofkent'
p172
aS'twitter.com/mattblaze'
p173
aS'twitter.com/michaelheywire'
p174
aS'twitter.com/aatilley'
p175
aS'twitter.com/tcarmody'
p176
aS'twitter.com/evleaks'
p177
aS'twitter.com/tched'
p178
aS'twitter.com/seldo'
p179
aS'twitter.com/mspoonauer'
p180
aS'twitter.com/29man'
p181
aS'twitter.com/20committee'
p182
aS'twitter.com/walterisaacson'
p183
asS'rss_list'
p184
(lp185
(S'pando.com'
p186
S'http://pando.com/rss.xml'
p187
tp188
a(S'www.businessinsider.com.au'
p189
S'http://feeds.businessinsider.com.au/businessinsideraustralia'
p190
tp191
a(S'www.slashgear.com'
p192
S'http://www.slashgear.com/feed/'
p193
tp194
a(S'www.securityweek.com'
p195
S'http://www.securityweek.com/rss.xml'
p196
tp197
a(S'hungarytoday.hu'
p198
S'http://hungarytoday.hu/feed'
p199
tp200
a(S'www.cnn.com'
p201
S'http://rss.cnn.com/rss/cnn_latest.rss'
p202
tp203
a(S'feeds.feedburner.com'
p204
S'http://feeds.feedburner.com/rss.xml'
p205
tp206
a(S'www.canadianreviewer.com'
p207
S'http://feeds.feedburner.com/canadianreviewer/nPFE'
p208
tp209
a(S'www.thewrap.com'
p210
S'http://www.thewrap.com/feed/'
p211
tp212
a(S'venturebreak.com'
p213
S'http://venturebreak.com/feed/'
p214
tp215
a(S'www.networkworld.com'
p216
S'http://www.networkworld.com/index.rss'
p217
tp218
a(S'blog.chron.com'
p219
S'http://blog.chron.com/rss'
p220
tp221
a(S'www.redmondpie.com'
p222
S'http://www.redmondpie.com/feed/'
p223
tp224
a(S'blog.gadgetzarena.com'
p225
S'http://blog.gadgetzarena.com/feed/'
p226
tp227
a(S's3-us-west-1.amazonaws.com'
p228
S'http://aws.amazon.com/rss/whats-new.rss?nc1=f_so_rs'
p229
tp230
a(S'www.seroundtable.com'
p231
S'https://www.seroundtable.com/index.rdf'
p232
tp233
a(S'www.smh.com.au'
p234
S'http://feeds.smh.com.au/rssheadlines/top.xml'
p235
tp236
a(S'smallbusiness.com'
p237
S'http://smallbusiness.com/feed/'
p238
tp239
a(S'blog.sfgate.com'
p240
S'http://blog.sfgate.com/rss/'
p241
tp242
a(S'www.legalbusiness.co.uk'
p243
S'http://www.legalbusiness.co.uk/index.php?format=feed&type=rss'
p244
tp245
a(S'www.taxationinfonews.com'
p246
S'http://www.taxationinfonews.com/feed/'
p247
tp248
a(S'www.theawl.com'
p249
S'http://feeds2.feedburner.com/TheAwl'
p250
tp251
a(S'nymag.com'
p252
S'http://nymag.com/daily/fashion/excerpts.xml'
p253
tp254
a(S'www.cryptocoinsnews.com'
p255
S'http://www.cryptocoinsnews.com/feed/'
p256
tp257
a(S'technabob.com'
p258
S'http://technabob.com/blog/feed'
p259
tp260
a(S'www.padgadget.com'
p261
S'http://feeds.feedburner.com/padgadget/'
p262
tp263
a(S'www.multichannel.com'
p264
S'http://www.multichannel.com/rss.xml%20'
p265
tp266
a(S'www.pastemagazine.com'
p267
S'http://www.pastemagazine.com/recent.xml'
p268
tp269
a(S'www.adexchanger.com'
p270
S'http://www.adexchanger.com/feed/'
p271
tp272
a(S'www.electronista.com'
p273
S'http://www.electronista.com/electronista.rss'
p274
tp275
a(S'infoworld.com'
p276
S'http://www.infoworld.com/index.rss'
p277
tp278
a(S'9to5mac.com'
p279
S'http://9to5mac.com/feed/'
p280
tp281
a(S'ostatic.com'
p282
S'http://feeds.feedburner.com/ostatic'
p283
tp284
a(S'fortune.com'
p285
S'http://fortune.com/rss.xml'
p286
tp287
a(S'seekingalpha.com'
p288
S'http://seekingalpha.com/feed.xml'
p289
tp290
a(S'www.joystiq.com'
p291
S'http://www.joystiq.com//rss.xml'
p292
tp293
a(S'www.kitguru.net'
p294
S'http://www.kitguru.net/feed/'
p295
tp296
a(S'blog.snapchat.com'
p297
S'http://blog.snapchat.com/rss'
p298
tp299
a(S'www.ghacks.net'
p300
S'http://www.ghacks.net/feed/'
p301
tp302
a(S'www.inc.com'
p303
S'http://www.inc.com/rss.xml'
p304
tp305
a(S'www.computerworld.com'
p306
S'http://www.computerworld.com/index.rss'
p307
tp308
a(S'www.zdnet.com'
p309
S'http://www.zdnet.com/rss.xml'
p310
tp311
a(S'blogs.cisco.com'
p312
S'http://blogs.cisco.com/feed/'
p313
tp314
a(S'arstechnica.com'
p315
S'http://feeds.arstechnica.com/arstechnica/index/'
p316
tp317
a(S'news.techmeme.com'
p318
S'http://news.techmeme.com/index.xml'
p319
tp320
a(S'blogs.windows.com'
p321
S'http://blogs.windows.com/feed/'
p322
tp323
a(S'dealbook.nytimes.com'
p324
S'http://dealbook.nytimes.com/feed/'
p325
tp326
a(S'www.seobythesea.com'
p327
S'http://www.seobythesea.com/feed/'
p328
tp329
a(S'multichannel.com'
p330
S'http://multichannel.com/rss.xml%20'
p331
tp332
a(S'www.bgr.in'
p333
S'http://www.bgr.in/feed/'
p334
tp335
a(S'techcrunch.com'
p336
S'http://techcrunch.com/feed/'
p337
tp338
a(S'abovethelaw.com'
p339
S'http://feeds.feedburner.com/abovethelaw/'
p340
tp341
a(S'www.pewinternet.org'
p342
S'http://www.pewinternet.org/feed/'
p343
tp344
a(S'www.eetimes.com'
p345
S'http://www.eetimes.com/rss_simple.asp'
p346
tp347
a(S'crackberry.com'
p348
S'http://crackberry.com/rss.xml'
p349
tp350
a(S'www.nytimes.com'
p351
S'http://www.nytimes.com/services/xml/rss/nyt/HomePage.xml'
p352
tp353
a(S'www.socaltech.com'
p354
S'http://www.socaltech.com/news/news.rss'
p355
tp356
a(S'blogs.skype.com'
p357
S'http://feeds.feedburner.com/ShareSkypeEn'
p358
tp359
a(S'appleinsider.com'
p360
S'http://appleinsider.com/appleinsider.rss'
p361
tp362
a(S'allfacebook.com'
p363
S'http://allfacebook.com/rss/'
p364
tp365
a(S'www.eweek.com'
p366
S'http://www.eweek.com/rss.xml'
p367
tp368
a(S'www.tested.com'
p369
S'http://www.tested.com/feeds/'
p370
tp371
a(S'www.ibtimes.com'
p372
S'http://www.ibtimes.com/rss.xml'
p373
tp374
a(S'money.cnn.com'
p375
S'http://rss.cnn.com/rss/money_topstories.rss'
p376
tp377
a(S'thehill.com'
p378
S'http://thehill.com/rss.xml'
p379
tp380
a(S'www.nymag.com'
p381
S'http://www.vulture.com/rss/latestnews/full.xml'
p382
tp383
a(S'valleywag.gawker.com'
p384
S'http://feeds.gawker.com/valleywag/full'
p385
tp386
a(S'jalopnik.com'
p387
S'http://feeds.gawker.com/jalopnik/full'
p388
tp389
a(S'gigaom.com'
p390
S'https://gigaom.com/feed/'
p391
tp392
a(S'www.virusbtn.com'
p393
S'http://www.virusbtn.com/library/feeds/vb_news.rdf'
p394
tp395
a(S'www.wired.com'
p396
S'http://www.wired.com/feed/'
p397
tp398
a(S'www.powerpage.org'
p399
S'http://www.powerpage.org/feed/'
p400
tp401
a(S'upstart.bizjournals.com'
p402
S'http://assets.upstart.bizjournals.com/rss/feed/all'
p403
tp404
a(S'www.dailytech.com'
p405
S'http://www.dailytech.com/rss.aspx'
p406
tp407
a(S'applespotlight.com'
p408
S'https://applespotlight.com/feed/'
p409
tp410
a(S'blog.foreignpolicy.com'
p411
S'http://blog.foreignpolicy.com/rss.xml'
p412
tp413
a(S'www.variety.com'
p414
S'http://variety.com/feed/'
p415
tp416
a(S'www.tuaw.com'
p417
S'http://www.tuaw.com/rss.xml'
p418
tp419
a(S'www.fiercebiotech.com'
p420
S'http://www.fiercebiotech.com/rss.xml'
p421
tp422
a(S'www.pehub.com'
p423
S'https://www.pehub.com/comments/feed/'
p424
tp425
a(S'www.winsupersite.com'
p426
S'http://winsupersite.com/rss.xml'
p427
tp428
a(S'www.macrumors.com'
p429
S'http://feeds.macrumors.com/MacRumors-All'
p430
tp431
a(S'boingboing.net'
p432
S'http://boingboing.net/rss'
p433
tp434
a(S'www.stonetemple.com'
p435
S'https://www.stonetemple.com/feed/'
p436
tp437
a(S'kotaku.com'
p438
S'http://feeds.gawker.com/kotaku/full'
p439
tp440
a(S'www.broadbandtvnews.com'
p441
S'http://www.broadbandtvnews.com/feed/'
p442
tp443
a(S'news.spotify.com'
p444
S'http://news.spotify.com/atom.xml'
p445
tp446
a(S'galencharlton.com'
p447
S'http://galencharlton.com/rss.xml'
p448
tp449
a(S'investorplace.com'
p450
S'http://investorplace.com/feed/'
p451
tp452
a(S'www.marco.org'
p453
S'http://www.marco.org/rss'
p454
tp455
a(S'www.wordstream.com'
p456
S'http://www.wordstream.com/rss.xml'
p457
tp458
a(S'www.scmagazineuk.com'
p459
S'http://www.scmagazineuk.com/pages/rss.aspx?sectionid=313'
p460
tp461
a(S'www.fiercemobileit.com'
p462
S'http://www.fiercemobileit.com/rss.xml'
p463
tp464
a(S'hdguru.com'
p465
S'http://hdguru.com/feed/'
p466
tp467
a(S'www.theinformation.com'
p468
S'http://www.theinformation.com/feed'
p469
tp470
a(S'www.ft.com'
p471
S'http://www.ft.com/rss/home/uk'
p472
tp473
a(S'searchengineland.com'
p474
S'http://feeds.searchengineland.com/searchcap'
p475
tp476
a(S'www.theatlantic.com'
p477
S'http://feeds.feedburner.com/TheAtlantic'
p478
tp479
a(S'www.strictlyvc.com'
p480
S'http://www.strictlyvc.com/feed/'
p481
tp482
a(S'windowsitpro.com'
p483
S'http://windowsitpro.com/rss.xml'
p484
tp485
a(S'rainnews.com'
p486
S'http://rainnews.com/feed/'
p487
tp488
a(S'fashionista.com'
p489
S'http://fashionista.com/index.xml'
p490
tp491
a(S'beaugil.es'
p492
S'https://beaugil.es/feed/'
p493
tp494
a(S'support.apple.com'
p495
S'http://support.apple.com/rss/'
p496
tp497
a(S'www.irishtimes.com'
p498
S'http://www.irishtimes.com/rss/video-wall-1.1683580?localLinksEnabled=false'
p499
tp500
a(S'www.macstories.net'
p501
S'http://www.macstories.net/feed/'
p502
tp503
a(S'ecpmblog.wordpress.com'
p504
S'http://ecpmblog.wordpress.com/feed/'
p505
tp506
a(S'sixcolors.com'
p507
S'http://feedpress.me/sixcolors?type=xml'
p508
tp509
a(S'betanews.com'
p510
S'http://betanews.com/feed/'
p511
tp512
a(S'www.techtimes.com'
p513
S'http://www.techtimes.com/rss/archives/archives.xml'
p514
tp515
a(S'bits.blogs.nytimes.com'
p516
S'http://bits.blogs.nytimes.com/feed/'
p517
tp518
a(S'chicagobusiness.com'
p519
S'http://chicagobusiness.com/section/news?template=rss'
p520
tp521
a(S'www.citeworld.com'
p522
S'http://www.citeworld.com/index.rss'
p523
tp524
a(S'www.itproportal.com'
p525
S'http://feeds.itproportal.com/itproportal/rss'
p526
tp527
a(S'blog.flickr.net'
p528
S'http://blog.flickr.net/rss.xml'
p529
tp530
a(S'blog.walkscore.com'
p531
S'http://blog.walkscore.com/feed/'
p532
tp533
a(S'blog.cloudflare.com'
p534
S'http://blog.cloudflare.com/rss/'
p535
tp536
a(S'www.bit-tech.net'
p537
S'http://www.bit-tech.net/xml/all.rss'
p538
tp539
a(S'www.ubergizmo.com'
p540
S'http://cdn2.ubergizmo.com/index.xml'
p541
tp542
a(S'www.thehill.com'
p543
S'http://www.thehill.com/rss.xml'
p544
tp545
a(S'www.marketingpilgrim.com'
p546
S'http://www.marketingpilgrim.com/feed'
p547
tp548
a(S'pocketnow.com'
p549
S'http://pocketnow.com/feed'
p550
tp551
a(S'www.extremetech.com'
p552
S'http://www.extremetech.com/feed'
p553
tp554
a(S'blog.cryptographyengineering.com'
p555
S'http://blog.cryptographyengineering.com/feeds/posts/default'
p556
tp557
a(S'www.windowsitpro.com'
p558
S'http://windowsitpro.com/rss.xml'
p559
tp560
a(S'www.examiner.com'
p561
S'http://www.examiner.com/rss.xml'
p562
tp563
a(S'www.digitaltrends.com'
p564
S'http://www.digitaltrends.com/feed/'
p565
tp566
a(S'www.buzzfeed.com'
p567
S'http://www.buzzfeed.com/index.xml'
p568
tp569
a(S'www.scmagazine.com'
p570
S'http://feeds.feedburner.com/scmagazinehome'
p571
tp572
a(S'socialtimes.com'
p573
S'http://socialtimes.com/rss/'
p574
tp575
a(S'www.techweekeurope.co.uk'
p576
S'http://www.techweekeurope.co.uk/feed'
p577
tp578
a(S'hexus.net'
p579
S'http://hexus.net/rss/'
p580
tp581
a(S'time.com'
p582
S'http://time.com/rss.xml'
p583
tp584
a(S'www.globalnerdy.com'
p585
S'http://feeds.feedburner.com/globalnerdy'
p586
tp587
a(S'www.memeorandum.com'
p588
S'http://www.memeorandum.com/feed.xml'
p589
tp590
a(S'www.time.com'
p591
S'http://www.time.com/rss.xml'
p592
tp593
a(S'www.infoworld.com'
p594
S'http://www.infoworld.com/index.rss'
p595
tp596
a(S'blogs.unity3d.com'
p597
S'http://blogs.unity3d.com/feed/'
p598
tp599
a(S'techpinions.com'
p600
S'http://techpinions.com/feed'
p601
tp602
a(S'readwrite.com'
p603
S'http://readwrite.com/rss.xml'
p604
tp605
a(S'www.silicontap.com'
p606
S'http://www.silicontap.com/news/news.rss'
p607
tp608
a(S'www.pocket-lint.com'
p609
S'http://cdn.pocket-lint.com/rss/all.xml'
p610
tp611
a(S'www.imore.com'
p612
S'http://www.imore.com/feed'
p613
tp614
a(S'www.itworld.com'
p615
S'http://www.itworld.com/index.rss'
p616
tp617
a(S'dailycaller.com'
p618
S'http://dailycaller.com/feed/'
p619
tp620
a(S'www.cloudpro.co.uk'
p621
S'http://www.cloudpro.co.uk/rss.xml'
p622
tp623
a(S'www.geek.com'
p624
S'http://www.geek.com/feed/'
p625
tp626
a(S'www.wpcentral.com'
p627
S'http://www.wpcentral.com/rss'
p628
tp629
a(S'bgr.com'
p630
S'http://bgr.com/feed/'
p631
tp632
a(S'www.washingtonpost.com'
p633
S'http://www.washingtonpost.com/rss/homepage'
p634
tp635
a(S'www.technobuffalo.com'
p636
S'http://www.technobuffalo.com/feed/'
p637
tp638
a(S'www.eurogamer.net'
p639
S'http://www.eurogamer.net/?format=rss'
p640
tp641
a(S'www.fastcodesign.com'
p642
S'http://www.fastcodesign.com/rss.xml'
p643
tp644
a(S'www.sfexaminer.com'
p645
S'http://www.sfexaminer.com/sanfrancisco/Rss.xml'
p646
tp647
a(S'www.betanews.com'
p648
S'http://betanews.com/feed/'
p649
tp650
a(S'www.thewhir.com'
p651
S'http://www.thewhir.com/feed'
p652
tp653
a(S'www.gizmobic.com'
p654
S'http://www.gizmobic.com/feed/'
p655
tp656
a(S'news.microsoft.com'
p657
S'http://news.microsoft.com/feed/'
p658
tp659
a(S'www.maclife.com'
p660
S'http://www.maclife.com/rss.xml'
p661
tp662
a(S'au.pcmag.com'
p663
S'http://au.pcmag.com/feed.xml'
p664
tp665
a(S'www.idownloadblog.com'
p666
S'http://www.idownloadblog.com/feed/'
p667
tp668
a(S'www.dailydot.com'
p669
S'http://www.dailydot.com/feed/summary/latest/'
p670
tp671
a(S'www.news.com.au'
p672
S'http://feeds.news.com.au/public/rss/2.0/news_top_stories_48.xml'
p673
tp674
a(S'online.wsj.com'
p675
S'http://feeds.wsjonline.com/wsj/xml/rss/3_7011.xml'
p676
tp677
a(S'www.thewearablestuff.com'
p678
S'http://www.thewearablestuff.com/feed/'
p679
tp680
a(S'venturebeat.com'
p681
S'http://feeds.venturebeat.com/VentureBeat'
p682
tp683
a(S'justsecurity.org'
p684
S'http://justsecurity.org/feed/'
p685
tp686
a(S'www.winbeta.org'
p687
S'http://www.winbeta.org/rss.xml'
p688
tp689
a(S'phandroid.com'
p690
S'http://phandroid.com/feed/'
p691
tp692
a(S'www.techradar.com'
p693
S'http://www.techradar.com/rss/new'
p694
tp695
a(S'blog.laptopmag.com'
p696
S'http://feeds.feedburner.com/LaptopMagazineNews'
p697
tp698
a(S'www.seattlesportsnut.com'
p699
S'http://www.seattlesportsnut.com/rss.xml'
p700
tp701
a(S'gmailblog.blogspot.com'
p702
S'http://gmailblog.blogspot.com/feeds/posts/default'
p703
tp704
a(S'winsupersite.com'
p705
S'http://winsupersite.com/rss.xml'
p706
tp707
a(S'www.windowscentral.com'
p708
S'http://www.windowscentral.com/rss'
p709
tp710
a(S'googleonlinesecurity.blogspot.co.uk'
p711
S'http://googleonlinesecurity.blogspot.com/feeds/posts/default'
p712
tp713
a(S'www.webpronews.com'
p714
S'http://www.webpronews.com/feed'
p715
tp716
a(S'www.techspot.com'
p717
S'http://www.techspot.com/reviews.xml'
p718
tp719
a(S'www.theguardian.com'
p720
S'http://feeds.theguardian.com/theguardian/us/rss'
p721
tp722
a(S'www.macnn.com'
p723
S'http://www.macnn.com/macnn.rss'
p724
tp725
a(S'www.independent.co.uk'
p726
S'http://www.independent.co.uk/sport/rss'
p727
tp728
a(S'www.fortune.com'
p729
S'http://www.fortune.com/rss.xml'
p730
tp731
a(S'thenewstack.io'
p732
S'http://thenewstack.io/feed/'
p733
tp734
a(S'www.streamingmedia.com'
p735
S'http://feeds.infotoday.com/StreamingMediaMagazine-AllArticles'
p736
tp737
a(S'www.techinasia.com'
p738
S'http://feeds.feedburner.com/techinasia'
p739
tp740
a(S'www.intomobile.com'
p741
S'http://feeds.intomobile.com/IntoMobile'
p742
tp743
a(S'googlesystem.blogspot.com'
p744
S'http://feeds.feedburner.com/GoogleOperatingSystem'
p745
tp746
a(S'www.beet.tv'
p747
S'http://www.beet.tv/rss.xml'
p748
tp749
a(S'www.rev2.org'
p750
S'http://www.rev2.org/feed/'
p751
tp752
a(S'www.androidguys.com'
p753
S'http://www.androidguys.com/feed/'
p754
tp755
a(S'mediagazer.com'
p756
S'http://mediagazer.com/feed.xml'
p757
tp758
a(S'sanfrancisco.cbslocal.com'
p759
S'http://sanfrancisco.cbslocal.com/feed/'
p760
tp761
a(S'9to5google.com'
p762
S'http://9to5google.com/feed/'
p763
tp764
a(S'stratechery.com'
p765
S'http://stratechery.com/feed/'
p766
tp767
a(S'www.edsurge.com'
p768
S'https://www.edsurge.com/articles_rss'
p769
tp770
a(S'www.sixcolors.com'
p771
S'http://feedpress.me/sixcolors?type=xml'
p772
tp773
a(S'blog.erratasec.com'
p774
S'http://blog.erratasec.com/feeds/posts/default'
p775
tp776
a(S'www.ftc.gov'
p777
S'http://www.ftc.gov/rss.xml'
p778
tp779
a(S'www.macobserver.com'
p780
S'http://www.macobserver.com/tmo/rss/everything'
p781
tp782
a(S'www.droid-life.com'
p783
S'http://www.droid-life.com/feed/'
p784
tp785
a(S'abcnews.go.com'
p786
S'http://feeds.abcnews.com/abcnews/topstories'
p787
tp788
a(S'www.datacenterknowledge.com'
p789
S'http://www.datacenterknowledge.com/feed/'
p790
tp791
a(S'www.poynter.org'
p792
S'http://www.poynter.org/home/feed/'
p793
tp794
a(S'www.theequitykicker.com'
p795
S'http://www.theequitykicker.com/feed/'
p796
tp797
a(S'rc3.org'
p798
S'http://rafeco.newsblur.com/social/rss/31152/rafeco'
p799
tp800
a(S'www.chicagotribune.com'
p801
S'http://www.chicagotribune.com/rss2.0.xml'
p802
tp803
a(S'www.fiercecio.com'
p804
S'http://www.fiercecio.com/rss.xml'
p805
tp806
a(S'en.greatfire.org'
p807
S'http://en.greatfire.org/news/blog/rss'
p808
tp809
a(S'www.polygon.com'
p810
S'http://www.polygon.com/rss/index.xml'
p811
tp812
a(S'siliconangle.com'
p813
S'http://siliconangle.com/feed/'
p814
tp815
a(S'www.cultofmac.com'
p816
S'http://cultofmac.com.feedsportal.com/c/33797/f/606249/index.rss'
p817
tp818
a(S'mashable.com'
p819
S'http://feeds.mashable.com/Mashable'
p820
tp821
a(S'www.sltrib.com'
p822
S'http://www.sltrib.com/rss/feed/?sec=/News/&level=0'
p823
tp824
a(S'adage.com'
p825
S'http://adage.com/rss-feed?section_id=301&xml=ATOM'
p826
tp827
a(S'the-digital-reader.com'
p828
S'http://the-digital-reader.com/feed/'
p829
tp830
a(S'www.androidcentral.com'
p831
S'http://www.androidcentral.com/feed'
p832
tp833
a(S'www.apple.com'
p834
S'http://images.apple.com/main/rss/hotnews/hotnews.rss'
p835
tp836
a(S'officialblog.yelp.com'
p837
S'http://officialblog.yelp.com/rss.xml'
p838
tp839
a(S'blogs.technet.com'
p840
S'http://blogs.technet.com/rss.aspx'
p841
tp842
a(S'www.wesmirch.com'
p843
S'http://www.wesmirch.com/feed.xml'
p844
tp845
a(S'www.latimes.com'
p846
S'http://www.latimes.com/rss2.0.xml'
p847
tp848
a(S'blog.lyft.com'
p849
S'http://blog.lyft.com/posts?format=RSS'
p850
tp851
a(S'www.amazonstrategies.com'
p852
S'http://www.amazonstrategies.com/atom.xml'
p853
tp854
a(S'www.fiercewireless.com'
p855
S'http://www.fiercewireless.com/rss.xml'
p856
tp857
a(S'www.asymco.com'
p858
S'http://www.asymco.com/feed/'
p859
tp860
a(S'blog.twitpic.com'
p861
S'http://blog.twitpic.com/feed/'
p862
tp863
a(S'www.tmonews.com'
p864
S'http://www.tmonews.com/feed/'
p865
tp866
a(S'lifehacker.com'
p867
S'http://feeds.gawker.com/lifehacker/full'
p868
tp869
a(S'billboard.com'
p870
S'http://billboard.com/rss.xml'
p871
tp872
a(S'www.techdirt.com'
p873
S'http://www.techdirt.com/techdirt_rss.xml'
p874
tp875
a(S'wccftech.com'
p876
S'http://feeds2.feedburner.com/Wccftechcom'
p877
tp878
a(S'www.connectedly.com'
p879
S'http://www.connectedly.com/rss.xml'
p880
tp881
a(S'www.eater.com'
p882
S'http://www.eater.com/rss/index.xml'
p883
tp884
a(S'rt.com'
p885
S'http://rt.com/rss/'
p886
tp887
a(S'www.siliconbeat.com'
p888
S'http://www.siliconbeat.com/feed/'
p889
tp890
a(S'www.businessinsider.com'
p891
S'http://feeds2.feedburner.com/businessinsider'
p892
tp893
a(S'asmarterplanet.com'
p894
S'http://asmarterplanet.com/feed'
p895
tp896
a(S'www.theverge.com'
p897
S'http://www.theverge.com/rss/index.xml'
p898
tp899
a(S'appadvice.com'
p900
S'http://feeds2.feedburner.com/AppAdvice'
p901
tp902
a(S'blog.wolfram.com'
p903
S'http://blog.wolfram.com/feed/'
p904
tp905
a(S'techpp.com'
p906
S'http://techpp.com/feed/'
p907
tp908
a(S'www.thedomains.com'
p909
S'http://feeds.feedburner.com/thedomains'
p910
tp911
a(S'www.mediabistro.com'
p912
S'http://www.mediabistro.com/news/rss/'
p913
tp914
a(S'www.patentlyapple.com'
p915
S'http://www.patentlyapple.com/patently-apple/rss.xml'
p916
tp917
a(S'blog.seattlepi.com'
p918
S'http://blog.seattlepi.com/rss'
p919
tp920
a(S'www.japantoday.com'
p921
S'http://www.japantoday.com/feed'
p922
tp923
a(S'vator.tv'
p924
S'http://feeds.vator.tv/vatortv/news'
p925
tp926
a(S'techhive.com'
p927
S'http://www.techhive.com/index.rss'
p928
tp929
a(S'daringfireball.net'
p930
S'http://daringfireball.net/feeds/main'
p931
tp932
a(S'thenextweb.com'
p933
S'http://feeds2.feedburner.com/thenextweb'
p934
tp935
a(S'www.hollywoodreporter.com'
p936
S'http://www.hollywoodreporter.com/rss.xml'
p937
tp938
a(S'betaboston.com'
p939
S'http://betaboston.com/feed/'
p940
tp941
a(S'www.rudebaguette.com'
p942
S'http://www.rudebaguette.com/feed/'
p943
tp944
a(S'officialandroid.blogspot.com'
p945
S'http://officialandroid.blogspot.com/feeds/posts/default'
p946
tp947
a(S'blog.macminicolo.net'
p948
S'http://blog.macminicolo.net/rss'
p949
tp950
a(S'www.whitehouse.gov'
p951
S'http://www.whitehouse.gov/feed/blog'
p952
tp953
a(S'techreport.com'
p954
S'http://techreport.com/news.rss'
p955
tp956
a(S'www.adweek.com'
p957
S'http://www.adweek.com/rss.xml'
p958
tp959
a(S'mjtsai.com'
p960
S'http://mjtsai.com/blog/feed/'
p961
tp962
a(S'blog.twitter.com'
p963
S'https://blog.twitter.com/api/blog.rss?name=company'
p964
tp965
a(S'blog.biakelsey.com'
p966
S'http://blog.biakelsey.com/index.php/feed/'
p967
tp968
a(S'www.natlawreview.com'
p969
S'http://www.natlawreview.com/feed'
p970
tp971
a(S'www.phonearena.com'
p972
S'http://www.phonearena.com/feed/news'
p973
tp974
a(S'www.billboard.com'
p975
S'http://www.billboard.com/rss.xml'
p976
tp977
a(S'techmeme.com'
p978
S'http://www.techmeme.com/feed.xml'
p979
tp980
a(S'laughingsquid.com'
p981
S'http://laughingsquid.com/comments/feed/'
p982
tp983
a(S'krebsonsecurity.com'
p984
S'http://krebsonsecurity.com/feed/'
p985
tp986
a(S'blog.gsmarena.com'
p987
S'http://gsmarena.com/rss-news-reviews.php3'
p988
tp989
a(S'www.allenpike.com'
p990
S'http://www.allenpike.com/feed/'
p991
tp992
a(S'www.videonuze.com'
p993
S'http://www.videonuze.com/atom/podcast'
p994
tp995
a(S'www.cato.org'
p996
S'http://www.cato-unbound.org/rss'
p997
tp998
a(S'www.businessweek.com'
p999
S'http://www.businessweek.com/feeds/homepage.rss'
p1000
tp1001
a(S'www.androidpolice.com'
p1002
S'http://www.androidpolice.com/feed/'
p1003
tp1004
a(S'googlecloudplatform.blogspot.com'
p1005
S'http://googlecloudplatform.blogspot.com/feeds/posts/default'
p1006
tp1007
a(S'gizmodo.com'
p1008
S'http://feeds.gawker.com/gizmodo/full'
p1009
tp1010
a(S'www.coindesk.com'
p1011
S'http://feeds.feedburner.com/CoinDesk'
p1012
tp1013
a(S'www.twice.com'
p1014
S'http://www.twice.com/rss.xml'
p1015
tp1016
a(S'blogs.wsj.com'
p1017
S'http://blogs.wsj.com/feed/'
p1018
tp1019
a(S'qz.com'
p1020
S'http://qz.com/rss.xml'
p1021
tp1022
a(S'www.fbi.gov'
p1023
S'http://www.fbi.gov/homepage/RSS'
p1024
tp1025
a(S'www.anandtech.com'
p1026
S'http://www.anandtech.com/rss/'
p1027
tp1028
a(S'www.9to5mac.com'
p1029
S'http://9to5mac.com/feed/'
p1030
tp1031
a(S'www.engadget.com'
p1032
S'http://www.engadget.com/rss.xml'
p1033
tp1034
a(S'channeleye.co.uk'
p1035
S'http://channeleye.co.uk/feed/'
p1036
tp1037
a(S'www.net-security.org'
p1038
S'http://feeds2.feedburner.com/HelpNetSecurity'
p1039
tp1040
a(S'www.mediagazer.com'
p1041
S'http://mediagazer.com/feed.xml'
p1042
tp1043
a(S'computerworld.com'
p1044
S'http://www.computerworld.com/index.rss'
p1045
tp1046
a(S'www.tomsguide.com'
p1047
S'http://www.tomsguide.com/feeds/rss2/all.xml'
p1048
tp1049
a(S'www.portfolio.hu'
p1050
S'http://www.portfolio.hu/rss/cikkek/all.xml'
p1051
tp1052
a(S'mobihealthnews.com'
p1053
S'http://mobihealthnews.com/feed/'
p1054
tp1055
a(S'feeds2.feedburner.com'
p1056
S'http://feeds2.feedburner.com/rss.xml'
p1057
tp1058
a(S'androidspin.com'
p1059
S'http://androidspin.com/feed/'
p1060
tp1061
a(S'www.telegraph.co.uk'
p1062
S'http://www.telegraph.co.uk/rss'
p1063
tp1064
a(S'googleonlinesecurity.blogspot.com'
p1065
S'http://googleonlinesecurity.blogspot.com/feeds/posts/default'
p1066
tp1067
a(S'www.huffingtonpost.com'
p1068
S'http://www.huffingtonpost.com/wires/full_index.rdf'
p1069
tp1070
a(S'blog.redfin.com'
p1071
S'http://blog.redfin.com/feed'
p1072
tp1073
a(S'www.iclarified.com'
p1074
S'http://www.iclarified.com/rss/rss.xml'
p1075
tp1076
a(S'www.tapscape.com'
p1077
S'http://www.tapscape.com/feed/'
p1078
tp1079
a(S'www.chinatopix.com'
p1080
S'http://www.chinatopix.com/rss/'
p1081
tp1082
a(S'www.govhealthit.com'
p1083
S'http://www.govhealthit.com/events/feed'
p1084
tp1085
a(S'www.theregister.co.uk'
p1086
S'http://www.theregister.co.uk/headlines.atom'
p1087
tp1088
a(S'www.neowin.net'
p1089
S'http://feeds.feedburner.com/neowin-main'
p1090
tp1091
a(S'www.broadcastingcable.com'
p1092
S'http://www.broadcastingcable.com/rss.xml'
p1093
tp1094
a(S'www.dslreports.com'
p1095
S'http://feeds.feedburner.com/dslreports'
p1096
tp1097
a(S'fcw.com'
p1098
S'http://fcw.com/rss-feeds/all.aspx'
p1099
tp1100
a(S'macdailynews.com'
p1101
S'http://macdailynews.com/feed/'
p1102
tp1103
a(S'phys.org'
p1104
S'http://phys.org/rss-feed/'
p1105
tp1106
a(S'www.cio.com'
p1107
S'http://www.cio.com/index.rss'
p1108
tp1109
a(S'www.dailymail.co.uk'
p1110
S'http://www.dailymail.co.uk/articles.rss'
p1111
tp1112
a(S'www.androidheadlines.com'
p1113
S'http://www.androidheadlines.com/feed'
p1114
tp1115
a(S'yahoo.tumblr.com'
p1116
S'http://yahoo.tumblr.com/rss'
p1117
tp1118
a(S'marketingland.com'
p1119
S'http://feeds.marketingland.com/mktingland'
p1120
tp1121
a(S'recode.net'
p1122
S'http://recode.net/feed/'
p1123
tp1124
a(S'www.mobileburn.com'
p1125
S'http://www.mobileburn.com/xml/rss2.jsp'
p1126
tp1127
a(S'www.craveonline.com'
p1128
S'http://www.craveonline.com/feed'
p1129
tp1130
a(S'htcsource.com'
p1131
S'http://htcsource.com/feed/'
p1132
tp1133
a(S'www.forbes.com'
p1134
S'http://www.forbes.com/real-time/feed2/'
p1135
tp1136
a(S'www.benzinga.com'
p1137
S'http://feeds.benzinga.com/benzinga'
p1138
tp1139
a(S'www.ilounge.com'
p1140
S'http://feeds.feedburner.com/ilounge'
p1141
tp1142
a(S'sploid.gizmodo.com'
p1143
S'http://sploid.gizmodo.com/rss'
p1144
tp1145
a(S'www.chicagobusiness.com'
p1146
S'http://www.chicagobusiness.com/section/news?template=rss'
p1147
tp1148
a(S'blog.pandora.com'
p1149
S'http://blog.pandora.com/feed/'
p1150
tp1151
a(S'blogs.microsoft.com'
p1152
S'http://blogs.microsoft.com/feed/'
p1153
tp1154
a(S'www.vox.com'
p1155
S'http://www.vox.com/rss/index.xml'
p1156
tp1157
a(S'www.greenbot.com'
p1158
S'http://www.greenbot.com/index.rss'
p1159
tp1160
a(S'www.androidpit.com'
p1161
S'http://www.androidpit.com/feed/main.xml'
p1162
tp1163
a(S'www.adotas.com'
p1164
S'http://www.adotas.com/feed/'
p1165
tp1166
a(S'press.spotify.com'
p1167
S'http://press.spotify.com/atom.xml'
p1168
tp1169
a(S'www.techhive.com'
p1170
S'http://www.techhive.com/index.rss'
p1171
tp1172
a(S'www.tomshardware.com'
p1173
S'http://www.tomshardware.com/rss.xml'
p1174
tp1175
a(S'www.pcworld.com'
p1176
S'http://www.pcworld.com/index.rss'
p1177
tp1178
a(S'www.macworld.com'
p1179
S'http://www.macworld.com/index.rss'
p1180
tp1181
a(S'www.fastcompany.com'
p1182
S'http://www.fastcompany.com/rss.xml'
p1183
tp1184
a(S'cornerplay.com'
p1185
S'http://cornerplay.com/feed/'
p1186
tp1187
a(S'a16z.com'
p1188
S'http://a16z.com/feed/'
p1189
tp1190
a(S'pbokelly.blogspot.com'
p1191
S'http://pbokelly.blogspot.com/feeds/posts/default'
p1192
tp1193
a(S'firstlook.org'
p1194
S'https://firstlook.org/home/feed/'
p1195
tp1196
a(S'www.applegazette.com'
p1197
S'http://feeds.feedburner.com/AppleGazette'
p1198
tp1199
a(S'mobilesyrup.com'
p1200
S'http://mobilesyrup.com/feed/'
p1201
tp1202
a(S'consumerist.com'
p1203
S'http://consumerist.com/feed/'
p1204
tp1205
a(S'www.techmeme.com'
p1206
S'http://www.techmeme.com/feed.xml'
p1207
tp1208
as.